; Function Attrs: mustprogress nofree nounwind willreturn memory(argmem: read) uwtable
define dso_local noundef zeroext i1 @_ZN5cmsys11SystemTools14StringEndsWithEPKcS2_(ptr noundef readonly %0, ptr noundef readonly %1) local_unnamed_addr #22 align 2 {
  %3 = icmp ne ptr %0, null
  %4 = icmp ne ptr %1, null
  %or.cond = and i1 %3, %4
  br i1 %or.cond, label %5, label %12

5:                                                ; preds = %2
  %6 = tail call i64 @strlen(ptr noundef nonnull dereferenceable(1) %0) #43
  %7 = tail call i64 @strlen(ptr noundef nonnull dereferenceable(1) %1) #43
  %.not = icmp ult i64 %6, %7
  br i1 %.not, label %12, label %8

8:                                                ; preds = %5
  %9 = sub nuw i64 %6, %7
  %10 = getelementptr inbounds nuw i8, ptr %0, i64 %9
  %11 = tail call i32 @strncmp(ptr noundef nonnull %10, ptr noundef nonnull %1, i64 noundef %7) #43
  %.not16 = icmp eq i32 %11, 0
  br label %12

12:                                               ; preds = %5, %8, %2
  %.0 = phi i1 [ false, %2 ], [ false, %5 ], [ %.not16, %8 ]
  ret i1 %.0
}